; Function Attrs: nounwind uwtable
define internal void @gles_swap_frame_done(ptr noundef %0, ptr noundef %1, i32 %2) #0 {
  %4 = getelementptr inbounds nuw i8, ptr %0, i64 216
  %5 = tail call i32 @SDL_SetAtomicInt_REAL(ptr noundef nonnull %4, i32 noundef 1) #15
  %6 = getelementptr inbounds nuw i8, ptr %0, i64 40
  %7 = load ptr, ptr %6, align 8
  %8 = load ptr, ptr @WAYLAND_wl_proxy_marshal_flags, align 8
  %9 = load ptr, ptr @WAYLAND_wl_proxy_get_version, align 8
  %10 = tail call i32 %9(ptr noundef %7) #15
  %11 = tail call ptr (ptr, i32, ptr, i32, i32, ...) %8(ptr noundef %7, i32 noundef 3, ptr noundef nonnull @wl_callback_interface, i32 noundef %10, i32 noundef 0, ptr noundef null) #15
  %12 = getelementptr inbounds nuw i8, ptr %0, i64 24
  store ptr %11, ptr %12, align 8
  %13 = load ptr, ptr @WAYLAND_wl_proxy_destroy, align 8
  tail call void %13(ptr noundef %1) #15
  %14 = load ptr, ptr %12, align 8
  %15 = load ptr, ptr @WAYLAND_wl_proxy_add_listener, align 8
  %16 = tail call i32 %15(ptr noundef %14, ptr noundef nonnull @gles_swap_frame_listener, ptr noundef %0) #15
  ret void
}